target datalayout = "e-m:e-p270:32:32-p271:32:32-p272:64:64-i64:64-i128:128-f80:128-n8:16:32:64-S128"
target triple = "x86_64-pc-linux-gnu"

@.str = private unnamed_addr constant [25 x i8] c"../qemu/hw/block/block.c\00", align 1
@__func__.blk_check_size_and_read_all = private unnamed_addr constant [28 x i8] c"blk_check_size_and_read_all\00", align 1
@.str.1 = private unnamed_addr constant [35 x i8] c"can't get size of %s block backend\00", align 1
@.str.2 = private unnamed_addr constant [71 x i8] c"%s device '%s' requires %lu bytes, %s block backend provides %lu bytes\00", align 1
@.str.3 = private unnamed_addr constant [31 x i8] c"size <= BDRV_REQUEST_MAX_BYTES\00", align 1
@__PRETTY_FUNCTION__.blk_check_size_and_read_all = private unnamed_addr constant [91 x i8] c"_Bool blk_check_size_and_read_all(BlockBackend *, DeviceState *, void *, hwaddr, Error **)\00", align 1
@.str.4 = private unnamed_addr constant [47 x i8] c"can't read %s block backend for %s device '%s'\00", align 1

; Function Attrs: inlinehint nounwind sspstrong uwtable
define internal void @g_autoptr_cleanup_generic_gfree(ptr noundef %0) #2 {
  %2 = alloca ptr, align 8
  %3 = alloca ptr, align 8
  store ptr %0, ptr %2, align 8
  call void @llvm.lifetime.start.p0(i64 8, ptr %3) #6
  %4 = load ptr, ptr %2, align 8
  store ptr %4, ptr %3, align 8
  %5 = load ptr, ptr %3, align 8
  %6 = load ptr, ptr %5, align 8
  call void @g_free(ptr noundef %6)
  call void @llvm.lifetime.end.p0(i64 8, ptr %3) #6
  ret void
}

; Function Attrs: nounwind sspstrong uwtable
define internal i32 @blk_pread_nonzeroes(ptr noundef %0, i64 noundef %1, ptr noundef %2) #0 {
  %4 = alloca i32, align 4
  %5 = alloca ptr, align 8
  %6 = alloca i64, align 8
  %7 = alloca ptr, align 8
  %8 = alloca i32, align 4
  %9 = alloca i64, align 8
  %10 = alloca i64, align 8
  %11 = alloca ptr, align 8
  %12 = alloca i64, align 8
  %13 = alloca i64, align 8
  %14 = alloca i64, align 8
  %15 = alloca i32, align 4
  store ptr %0, ptr %5, align 8
  store i64 %1, ptr %6, align 8
  store ptr %2, ptr %7, align 8
  call void @llvm.lifetime.start.p0(i64 4, ptr %8) #6
  store i32 0, ptr %8, align 4, !annotation !4
  call void @llvm.lifetime.start.p0(i64 8, ptr %9) #6
  store i64 0, ptr %9, align 8, !annotation !4
  call void @llvm.lifetime.start.p0(i64 8, ptr %10) #6
  store i64 0, ptr %10, align 8
  call void @llvm.lifetime.start.p0(i64 8, ptr %11) #6
  %16 = load ptr, ptr %5, align 8
  %17 = call ptr @blk_bs(ptr noundef %16)
  store ptr %17, ptr %11, align 8
  br label %18

18:                                               ; preds = %61, %3
  call void @llvm.lifetime.start.p0(i64 8, ptr %12) #6
  %19 = load i64, ptr %6, align 8
  %20 = load i64, ptr %10, align 8
  %21 = sub i64 %19, %20
  store i64 %21, ptr %12, align 8
  call void @llvm.lifetime.start.p0(i64 8, ptr %13) #6
  store i64 2147483136, ptr %13, align 8
  %22 = load i64, ptr %12, align 8
  %23 = load i64, ptr %13, align 8
  %24 = icmp ult i64 %22, %23
  br i1 %24, label %25, label %27

25:                                               ; preds = %18
  %26 = load i64, ptr %12, align 8
  br label %29

27:                                               ; preds = %18
  %28 = load i64, ptr %13, align 8
  br label %29

29:                                               ; preds = %27, %25
  %30 = phi i64 [ %26, %25 ], [ %28, %27 ]
  store i64 %30, ptr %14, align 8
  call void @llvm.lifetime.end.p0(i64 8, ptr %13) #6
  call void @llvm.lifetime.end.p0(i64 8, ptr %12) #6
  %31 = load i64, ptr %14, align 8
  store i64 %31, ptr %9, align 8
  %32 = load i64, ptr %9, align 8
  %33 = icmp sle i64 %32, 0
  br i1 %33, label %34, label %35

34:                                               ; preds = %29
  store i32 0, ptr %4, align 4
  store i32 1, ptr %15, align 4
  br label %65

35:                                               ; preds = %29
  %36 = load ptr, ptr %11, align 8
  %37 = load i64, ptr %10, align 8
  %38 = load i64, ptr %9, align 8
  %39 = call i32 @bdrv_block_status(ptr noundef %36, i64 noundef %37, i64 noundef %38, ptr noundef %9, ptr noundef null, ptr noundef null)
  store i32 %39, ptr %8, align 4
  %40 = load i32, ptr %8, align 4
  %41 = icmp slt i32 %40, 0
  br i1 %41, label %42, label %44

42:                                               ; preds = %35
  %43 = load i32, ptr %8, align 4
  store i32 %43, ptr %4, align 4
  store i32 1, ptr %15, align 4
  br label %65

44:                                               ; preds = %35
  %45 = load i32, ptr %8, align 4
  %46 = and i32 %45, 2
  %47 = icmp ne i32 %46, 0
  br i1 %47, label %61, label %48

48:                                               ; preds = %44
  %49 = load ptr, ptr %5, align 8
  %50 = load i64, ptr %10, align 8
  %51 = load i64, ptr %9, align 8
  %52 = load ptr, ptr %7, align 8
  %53 = load i64, ptr %10, align 8
  %54 = getelementptr inbounds i8, ptr %52, i64 %53
  %55 = call i32 @blk_pread(ptr noundef %49, i64 noundef %50, i64 noundef %51, ptr noundef %54, i32 noundef 0)
  store i32 %55, ptr %8, align 4
  %56 = load i32, ptr %8, align 4
  %57 = icmp slt i32 %56, 0
  br i1 %57, label %58, label %60

58:                                               ; preds = %48
  %59 = load i32, ptr %8, align 4
  store i32 %59, ptr %4, align 4
  store i32 1, ptr %15, align 4
  br label %65

60:                                               ; preds = %48
  br label %61

61:                                               ; preds = %60, %44
  %62 = load i64, ptr %9, align 8
  %63 = load i64, ptr %10, align 8
  %64 = add i64 %63, %62
  store i64 %64, ptr %10, align 8
  br label %18

65:                                               ; preds = %58, %42, %34
  call void @llvm.lifetime.end.p0(i64 8, ptr %11) #6
  call void @llvm.lifetime.end.p0(i64 8, ptr %10) #6
  call void @llvm.lifetime.end.p0(i64 8, ptr %9) #6
  call void @llvm.lifetime.end.p0(i64 4, ptr %8) #6
  %66 = load i32, ptr %4, align 4
  ret i32 %66
}

; Function Attrs: nounwind sspstrong uwtable
define dso_local zeroext i1 @blk_check_size_and_read_all(ptr noundef %0, ptr noundef %1, ptr noundef %2, i64 noundef %3, ptr noundef %4) #0 {
  %6 = alloca i1, align 1
  %7 = alloca ptr, align 8
  %8 = alloca ptr, align 8
  %9 = alloca ptr, align 8
  %10 = alloca i64, align 8
  %11 = alloca ptr, align 8
  %12 = alloca i64, align 8
  %13 = alloca i32, align 4
  %14 = alloca ptr, align 8
  %15 = alloca i32, align 4
  store ptr %0, ptr %7, align 8
  store ptr %1, ptr %8, align 8
  store ptr %2, ptr %9, align 8
  store i64 %3, ptr %10, align 8
  store ptr %4, ptr %11, align 8
  call void @llvm.lifetime.start.p0(i64 8, ptr %12) #6
  store i64 0, ptr %12, align 8, !annotation !4
  call void @llvm.lifetime.start.p0(i64 4, ptr %13) #6
  store i32 0, ptr %13, align 4, !annotation !4
  call void @llvm.lifetime.start.p0(i64 8, ptr %14) #6
  store ptr null, ptr %14, align 8
  %16 = load ptr, ptr %7, align 8
  %17 = call i64 @blk_getlength(ptr noundef %16)
  store i64 %17, ptr %12, align 8
  %18 = load i64, ptr %12, align 8
  %19 = icmp slt i64 %18, 0
  br i1 %19, label %20, label %27

20:                                               ; preds = %5
  %21 = load ptr, ptr %11, align 8
  %22 = load i64, ptr %12, align 8
  %23 = sub i64 0, %22
  %24 = trunc i64 %23 to i32
  %25 = load ptr, ptr %7, align 8
  %26 = call ptr @blk_name(ptr noundef %25)
  call void (ptr, ptr, i32, ptr, i32, ptr, ...) @error_setg_errno_internal(ptr noundef %21, ptr noundef @.str, i32 noundef 72, ptr noundef @__func__.blk_check_size_and_read_all, i32 noundef %24, ptr noundef @.str.1, ptr noundef %26)
  store i1 false, ptr %6, align 1
  store i32 1, ptr %15, align 4
  br label %66

27:                                               ; preds = %5
  %28 = load i64, ptr %12, align 8
  %29 = load i64, ptr %10, align 8
  %30 = icmp ne i64 %28, %29
  br i1 %30, label %31, label %42

31:                                               ; preds = %27
  %32 = load ptr, ptr %8, align 8
  %33 = call ptr @qdev_get_human_name(ptr noundef %32)
  store ptr %33, ptr %14, align 8
  %34 = load ptr, ptr %11, align 8
  %35 = load ptr, ptr %8, align 8
  %36 = call ptr @object_get_typename(ptr noundef %35)
  %37 = load ptr, ptr %14, align 8
  %38 = load i64, ptr %10, align 8
  %39 = load ptr, ptr %7, align 8
  %40 = call ptr @blk_name(ptr noundef %39)
  %41 = load i64, ptr %12, align 8
  call void (ptr, ptr, i32, ptr, ptr, ...) @error_setg_internal(ptr noundef %34, ptr noundef @.str, i32 noundef 80, ptr noundef @__func__.blk_check_size_and_read_all, ptr noundef @.str.2, ptr noundef %36, ptr noundef %37, i64 noundef %38, ptr noundef %40, i64 noundef %41)
  store i1 false, ptr %6, align 1
  store i32 1, ptr %15, align 4
  br label %66

42:                                               ; preds = %27
  %43 = load i64, ptr %10, align 8
  %44 = icmp ule i64 %43, 2147483136
  br i1 %44, label %45, label %46

45:                                               ; preds = %42
  br label %47

46:                                               ; preds = %42
  call void @__assert_fail(ptr noundef @.str.3, ptr noundef @.str, i32 noundef 90, ptr noundef @__PRETTY_FUNCTION__.blk_check_size_and_read_all) #7
  unreachable

47:                                               ; preds = %45
  %48 = load ptr, ptr %7, align 8
  %49 = load i64, ptr %10, align 8
  %50 = load ptr, ptr %9, align 8
  %51 = call i32 @blk_pread_nonzeroes(ptr noundef %48, i64 noundef %49, ptr noundef %50)
  store i32 %51, ptr %13, align 4
  %52 = load i32, ptr %13, align 4
  %53 = icmp slt i32 %52, 0
  br i1 %53, label %54, label %65

54:                                               ; preds = %47
  %55 = load ptr, ptr %8, align 8
  %56 = call ptr @qdev_get_human_name(ptr noundef %55)
  store ptr %56, ptr %14, align 8
  %57 = load ptr, ptr %11, align 8
  %58 = load i32, ptr %13, align 4
  %59 = sub i32 0, %58
  %60 = load ptr, ptr %7, align 8
  %61 = call ptr @blk_name(ptr noundef %60)
  %62 = load ptr, ptr %8, align 8
  %63 = call ptr @object_get_typename(ptr noundef %62)
  %64 = load ptr, ptr %14, align 8
  call void (ptr, ptr, i32, ptr, i32, ptr, ...) @error_setg_errno_internal(ptr noundef %57, ptr noundef @.str, i32 noundef 97, ptr noundef @__func__.blk_check_size_and_read_all, i32 noundef %59, ptr noundef @.str.4, ptr noundef %61, ptr noundef %63, ptr noundef %64)
  store i1 false, ptr %6, align 1
  store i32 1, ptr %15, align 4
  br label %66

65:                                               ; preds = %47
  store i1 true, ptr %6, align 1
  store i32 1, ptr %15, align 4
  br label %66

66:                                               ; preds = %65, %54, %31, %20
  call void @g_autoptr_cleanup_generic_gfree(ptr noundef %14)
  call void @llvm.lifetime.end.p0(i64 8, ptr %14) #6
  call void @llvm.lifetime.end.p0(i64 4, ptr %13) #6
  call void @llvm.lifetime.end.p0(i64 8, ptr %12) #6
  %67 = load i1, ptr %6, align 1
  ret i1 %67
}