; Function Attrs: nounwind sspstrong uwtable
define dso_local noundef zeroext i1 @blk_check_size_and_read_all(ptr noundef %0, ptr noundef %1, ptr noundef %2, i64 noundef %3, ptr noundef %4) local_unnamed_addr #0 {
  %6 = alloca i64, align 8
  %7 = tail call i64 @blk_getlength(ptr noundef %0) #6
  %8 = icmp slt i64 %7, 0
  br i1 %8, label %9, label %13

9:                                                ; preds = %5
  %10 = trunc i64 %7 to i32
  %11 = sub i32 0, %10
  %12 = tail call ptr @blk_name(ptr noundef %0) #6
  tail call void (ptr, ptr, i32, ptr, i32, ptr, ...) @error_setg_errno_internal(ptr noundef %4, ptr noundef nonnull @.str, i32 noundef 72, ptr noundef nonnull @__func__.blk_check_size_and_read_all, i32 noundef %11, ptr noundef nonnull @.str.1, ptr noundef %12) #6
  br label %45

13:                                               ; preds = %5
  %.not = icmp eq i64 %7, %3
  br i1 %.not, label %18, label %14

14:                                               ; preds = %13
  %15 = tail call ptr @qdev_get_human_name(ptr noundef %1) #6
  %16 = tail call ptr @object_get_typename(ptr noundef %1) #6
  %17 = tail call ptr @blk_name(ptr noundef %0) #6
  tail call void (ptr, ptr, i32, ptr, ptr, ...) @error_setg_internal(ptr noundef %4, ptr noundef nonnull @.str, i32 noundef 80, ptr noundef nonnull @__func__.blk_check_size_and_read_all, ptr noundef nonnull @.str.2, ptr noundef %16, ptr noundef %15, i64 noundef %3, ptr noundef %17, i64 noundef %7) #6
  br label %45

18:                                               ; preds = %13
  %19 = icmp samesign ult i64 %3, 2147483137
  br i1 %19, label %21, label %20

20:                                               ; preds = %18
  tail call void @__assert_fail(ptr noundef nonnull @.str.3, ptr noundef nonnull @.str, i32 noundef 90, ptr noundef nonnull @__PRETTY_FUNCTION__.blk_check_size_and_read_all) #7
  unreachable

21:                                               ; preds = %18
  call void @llvm.lifetime.start.p0(i64 8, ptr nonnull %6) #6
  %22 = tail call ptr @blk_bs(ptr noundef %0) #6
  store i64 %3, ptr %6, align 8
  %23 = icmp eq i64 %3, 0
  br i1 %23, label %blk_pread_nonzeroes.exit, label %.lr.ph.i

.lr.ph.i:                                         ; preds = %21, %34
  %24 = phi i64 [ %38, %34 ], [ %3, %21 ]
  %.02024.i = phi i64 [ %36, %34 ], [ 0, %21 ]
  %25 = call i32 @bdrv_block_status(ptr noundef %22, i64 noundef %.02024.i, i64 noundef %24, ptr noundef nonnull %6, ptr noundef null, ptr noundef null) #6
  %26 = icmp slt i32 %25, 0
  br i1 %26, label %40, label %27

27:                                               ; preds = %.lr.ph.i
  %28 = and i32 %25, 2
  %.not.i = icmp eq i32 %28, 0
  br i1 %.not.i, label %29, label %34

29:                                               ; preds = %27
  %30 = load i64, ptr %6, align 8
  %31 = getelementptr inbounds i8, ptr %2, i64 %.02024.i
  %32 = call i32 @blk_pread(ptr noundef %0, i64 noundef %.02024.i, i64 noundef %30, ptr noundef %31, i32 noundef 0) #6
  %33 = icmp slt i32 %32, 0
  br i1 %33, label %40, label %34

34:                                               ; preds = %29, %27
  %35 = load i64, ptr %6, align 8
  %36 = add i64 %35, %.02024.i
  %37 = sub i64 %3, %36
  %38 = call i64 @llvm.umin.i64(i64 %37, i64 2147483136)
  store i64 %38, ptr %6, align 8
  %39 = icmp eq i64 %3, %36
  br i1 %39, label %blk_pread_nonzeroes.exit, label %.lr.ph.i

blk_pread_nonzeroes.exit:                         ; preds = %34, %21
  call void @llvm.lifetime.end.p0(i64 8, ptr nonnull %6) #6
  br label %45

40:                                               ; preds = %29, %.lr.ph.i
  %.0.i.ph = phi i32 [ %25, %.lr.ph.i ], [ %32, %29 ]
  call void @llvm.lifetime.end.p0(i64 8, ptr nonnull %6) #6
  %41 = call ptr @qdev_get_human_name(ptr noundef %1) #6
  %42 = sub i32 0, %.0.i.ph
  %43 = call ptr @blk_name(ptr noundef %0) #6
  %44 = call ptr @object_get_typename(ptr noundef %1) #6
  call void (ptr, ptr, i32, ptr, i32, ptr, ...) @error_setg_errno_internal(ptr noundef %4, ptr noundef nonnull @.str, i32 noundef 97, ptr noundef nonnull @__func__.blk_check_size_and_read_all, i32 noundef %42, ptr noundef nonnull @.str.4, ptr noundef %43, ptr noundef %44, ptr noundef %41) #6
  br label %45

45:                                               ; preds = %blk_pread_nonzeroes.exit, %40, %14, %9
  %.028 = phi ptr [ null, %9 ], [ %41, %40 ], [ null, %blk_pread_nonzeroes.exit ], [ %15, %14 ]
  %.0 = phi i1 [ false, %9 ], [ false, %40 ], [ true, %blk_pread_nonzeroes.exit ], [ false, %14 ]
  call void @g_free(ptr noundef %.028) #6
  ret i1 %.0
}